; ModuleID = '10/1393.c'
source_filename = "10/1393.c"
target datalayout = "e-m:e-p270:32:32-p271:32:32-p272:64:64-i64:64-f80:128-n8:16:32:64-S128"
target triple = "x86_64-pc-linux-gnu"

@.str = private unnamed_addr constant [3 x i8] c"%d\00", align 1
@.str.1 = private unnamed_addr constant [4 x i8] c"%d\0A\00", align 1

; Function Attrs: noinline nounwind uwtable
define dso_local i32 @main() #0 {
  %1 = alloca i32, align 4
  %2 = alloca [25 x i32], align 16
  %3 = alloca [25 x i32], align 16
  %4 = alloca i32, align 4
  %5 = alloca i32, align 4
  %6 = alloca i32, align 4
  %7 = alloca i32, align 4
  %8 = alloca i32, align 4
  store i32 0, i32* %1, align 4
  %9 = call i32 (i8*, ...) @__isoc99_scanf(i8* getelementptr inbounds ([3 x i8], [3 x i8]* @.str, i64 0, i64 0), i32* %8)
  store i32 0, i32* %4, align 4
  br label %10

10:                                               ; preds = %17, %0
  %11 = load i32, i32* %4, align 4
  %12 = icmp slt i32 %11, 25
  br i1 %12, label %13, label %20

13:                                               ; preds = %10
  %14 = load i32, i32* %4, align 4
  %15 = sext i32 %14 to i64
  %16 = getelementptr inbounds [25 x i32], [25 x i32]* %3, i64 0, i64 %15
  store i32 1, i32* %16, align 4
  br label %17

17:                                               ; preds = %13
  %18 = load i32, i32* %4, align 4
  %19 = add nsw i32 %18, 1
  store i32 %19, i32* %4, align 4
  br label %10

20:                                               ; preds = %10
  store i32 0, i32* %4, align 4
  br label %21

21:                                               ; preds = %70, %20
  %22 = load i32, i32* %4, align 4
  %23 = load i32, i32* %8, align 4
  %24 = icmp slt i32 %22, %23
  br i1 %24, label %25, label %73

25:                                               ; preds = %21
  %26 = load i32, i32* %4, align 4
  %27 = sext i32 %26 to i64
  %28 = getelementptr inbounds [25 x i32], [25 x i32]* %2, i64 0, i64 %27
  %29 = call i32 (i8*, ...) @__isoc99_scanf(i8* getelementptr inbounds ([3 x i8], [3 x i8]* @.str, i64 0, i64 0), i32* %28)
  store i32 0, i32* %5, align 4
  br label %30

30:                                               ; preds = %66, %25
  %31 = load i32, i32* %5, align 4
  %32 = load i32, i32* %4, align 4
  %33 = icmp slt i32 %31, %32
  br i1 %33, label %34, label %69

34:                                               ; preds = %30
  %35 = load i32, i32* %4, align 4
  %36 = sext i32 %35 to i64
  %37 = getelementptr inbounds [25 x i32], [25 x i32]* %2, i64 0, i64 %36
  %38 = load i32, i32* %37, align 4
  %39 = load i32, i32* %5, align 4
  %40 = sext i32 %39 to i64
  %41 = getelementptr inbounds [25 x i32], [25 x i32]* %2, i64 0, i64 %40
  %42 = load i32, i32* %41, align 4
  %43 = icmp sle i32 %38, %42
  br i1 %43, label %44, label %65

44:                                               ; preds = %34
  %45 = load i32, i32* %4, align 4
  %46 = sext i32 %45 to i64
  %47 = getelementptr inbounds [25 x i32], [25 x i32]* %3, i64 0, i64 %46
  %48 = load i32, i32* %47, align 4
  %49 = load i32, i32* %5, align 4
  %50 = sext i32 %49 to i64
  %51 = getelementptr inbounds [25 x i32], [25 x i32]* %3, i64 0, i64 %50
  %52 = load i32, i32* %51, align 4
  %53 = add nsw i32 %52, 1
  %54 = icmp slt i32 %48, %53
  br i1 %54, label %55, label %64

55:                                               ; preds = %44
  %56 = load i32, i32* %5, align 4
  %57 = sext i32 %56 to i64
  %58 = getelementptr inbounds [25 x i32], [25 x i32]* %3, i64 0, i64 %57
  %59 = load i32, i32* %58, align 4
  %60 = add nsw i32 %59, 1
  %61 = load i32, i32* %4, align 4
  %62 = sext i32 %61 to i64
  %63 = getelementptr inbounds [25 x i32], [25 x i32]* %3, i64 0, i64 %62
  store i32 %60, i32* %63, align 4
  br label %64

64:                                               ; preds = %55, %44
  br label %65

65:                                               ; preds = %64, %34
  br label %66

66:                                               ; preds = %65
  %67 = load i32, i32* %5, align 4
  %68 = add nsw i32 %67, 1
  store i32 %68, i32* %5, align 4
  br label %30

69:                                               ; preds = %30
  br label %70

70:                                               ; preds = %69
  %71 = load i32, i32* %4, align 4
  %72 = add nsw i32 %71, 1
  store i32 %72, i32* %4, align 4
  br label %21

73:                                               ; preds = %21
  store i32 0, i32* %5, align 4
  br label %74

74:                                               ; preds = %108, %73
  %75 = load i32, i32* %5, align 4
  %76 = load i32, i32* %4, align 4
  %77 = icmp slt i32 %75, %76
  br i1 %77, label %78, label %111

78:                                               ; preds = %74
  store i32 0, i32* %7, align 4
  store i32 0, i32* %6, align 4
  br label %79

79:                                               ; preds = %95, %78
  %80 = load i32, i32* %6, align 4
  %81 = load i32, i32* %4, align 4
  %82 = icmp slt i32 %80, %81
  br i1 %82, label %83, label %98

83:                                               ; preds = %79
  %84 = load i32, i32* %6, align 4
  %85 = sext i32 %84 to i64
  %86 = getelementptr inbounds [25 x i32], [25 x i32]* %3, i64 0, i64 %85
  %87 = load i32, i32* %86, align 4
  %88 = load i32, i32* %5, align 4
  %89 = sext i32 %88 to i64
  %90 = getelementptr inbounds [25 x i32], [25 x i32]* %3, i64 0, i64 %89
  %91 = load i32, i32* %90, align 4
  %92 = icmp sgt i32 %87, %91
  br i1 %92, label %93, label %94

93:                                               ; preds = %83
  store i32 1, i32* %7, align 4
  br label %94

94:                                               ; preds = %93, %83
  br label %95

95:                                               ; preds = %94
  %96 = load i32, i32* %6, align 4
  %97 = add nsw i32 %96, 1
  store i32 %97, i32* %6, align 4
  br label %79

98:                                               ; preds = %79
  %99 = load i32, i32* %7, align 4
  %100 = icmp eq i32 %99, 0
  br i1 %100, label %101, label %107

101:                                              ; preds = %98
  %102 = load i32, i32* %5, align 4
  %103 = sext i32 %102 to i64
  %104 = getelementptr inbounds [25 x i32], [25 x i32]* %3, i64 0, i64 %103
  %105 = load i32, i32* %104, align 4
  %106 = call i32 (i8*, ...) @printf(i8* getelementptr inbounds ([4 x i8], [4 x i8]* @.str.1, i64 0, i64 0), i32 %105)
  br label %111

107:                                              ; preds = %98
  br label %108

108:                                              ; preds = %107
  %109 = load i32, i32* %5, align 4
  %110 = add nsw i32 %109, 1
  store i32 %110, i32* %5, align 4
  br label %74

111:                                              ; preds = %101, %74
  ret i32 0
}

declare dso_local i32 @__isoc99_scanf(i8*, ...) #1

declare dso_local i32 @printf(i8*, ...) #1


!llvm.module.flags = !{!0}
!llvm.ident = !{!1}

!0 = !{i32 1, !"wchar_size", i32 4}
!1 = !{!"clang version 10.0.0-4ubuntu1 "}
